target datalayout = "e-m:e-p270:32:32-p271:32:32-p272:64:64-i64:64-i128:128-f80:128-n8:16:32:64-S128"
target triple = "x86_64-pc-linux-gnu"

%struct.FunctionCallInfoBaseData = type { ptr, ptr, ptr, i32, i8, i16, [0 x %struct.NullableDatum] }
%struct.NullableDatum = type { i64, i8 }
%struct.ItemPointerData = type { %struct.BlockIdData, i16 }
%struct.BlockIdData = type { i16, i16 }

@.str = private unnamed_addr constant [39 x i8] c"invalid input syntax for type %s: \22%s\22\00", align 1
@.str.1 = private unnamed_addr constant [4 x i8] c"tid\00", align 1
@.str.2 = private unnamed_addr constant [6 x i8] c"tid.c\00", align 1
@__func__.tidin = private unnamed_addr constant [6 x i8] c"tidin\00", align 1

; Function Attrs: inlinehint nounwind uwtable
define internal i64 @PointerGetDatum(ptr noundef %0) #2 {
  %2 = alloca ptr, align 8
  store ptr %0, ptr %2, align 8
  %3 = load ptr, ptr %2, align 8
  %4 = ptrtoint ptr %3 to i64
  ret i64 %4
}

; Function Attrs: inlinehint nounwind uwtable
define internal void @BlockIdSet(ptr noundef %0, i32 noundef %1) #2 {
  %3 = alloca ptr, align 8
  %4 = alloca i32, align 4
  store ptr %0, ptr %3, align 8
  store i32 %1, ptr %4, align 4
  %5 = load i32, ptr %4, align 4
  %6 = lshr i32 %5, 16
  %7 = trunc i32 %6 to i16
  %8 = load ptr, ptr %3, align 8
  %9 = getelementptr inbounds nuw %struct.BlockIdData, ptr %8, i32 0, i32 0
  store i16 %7, ptr %9, align 2
  %10 = load i32, ptr %4, align 4
  %11 = and i32 %10, 65535
  %12 = trunc i32 %11 to i16
  %13 = load ptr, ptr %3, align 8
  %14 = getelementptr inbounds nuw %struct.BlockIdData, ptr %13, i32 0, i32 1
  store i16 %12, ptr %14, align 2
  ret void
}

; Function Attrs: inlinehint nounwind uwtable
define internal ptr @DatumGetPointer(i64 noundef %0) #2 {
  %2 = alloca i64, align 8
  store i64 %0, ptr %2, align 8
  %3 = load i64, ptr %2, align 8
  %4 = inttoptr i64 %3 to ptr
  ret ptr %4
}

; Function Attrs: inlinehint nounwind uwtable
define internal i64 @ItemPointerGetDatum(ptr noundef %0) #2 {
  %2 = alloca ptr, align 8
  store ptr %0, ptr %2, align 8
  %3 = load ptr, ptr %2, align 8
  %4 = call i64 @PointerGetDatum(ptr noundef %3)
  ret i64 %4
}

; Function Attrs: inlinehint nounwind uwtable
define internal void @ItemPointerSet(ptr noundef %0, i32 noundef %1, i16 noundef zeroext %2) #2 {
  %4 = alloca ptr, align 8
  %5 = alloca i32, align 4
  %6 = alloca i16, align 2
  store ptr %0, ptr %4, align 8
  store i32 %1, ptr %5, align 4
  store i16 %2, ptr %6, align 2
  %7 = load ptr, ptr %4, align 8
  %8 = getelementptr inbounds nuw %struct.ItemPointerData, ptr %7, i32 0, i32 0
  %9 = load i32, ptr %5, align 4
  call void @BlockIdSet(ptr noundef %8, i32 noundef %9)
  %10 = load i16, ptr %6, align 2
  %11 = load ptr, ptr %4, align 8
  %12 = getelementptr inbounds nuw %struct.ItemPointerData, ptr %11, i32 0, i32 1
  store i16 %10, ptr %12, align 2
  ret void
}

; Function Attrs: inlinehint nounwind uwtable
define internal ptr @DatumGetCString(i64 noundef %0) #2 {
  %2 = alloca i64, align 8
  store i64 %0, ptr %2, align 8
  %3 = load i64, ptr %2, align 8
  %4 = call ptr @DatumGetPointer(i64 noundef %3)
  ret ptr %4
}

; Function Attrs: nounwind uwtable
define dso_local i64 @tidin(ptr noundef %0) #0 {
  %2 = alloca i64, align 8
  %3 = alloca ptr, align 8
  %4 = alloca ptr, align 8
  %5 = alloca ptr, align 8
  %6 = alloca ptr, align 8
  %7 = alloca [2 x ptr], align 16
  %8 = alloca i32, align 4
  %9 = alloca ptr, align 8
  %10 = alloca i32, align 4
  %11 = alloca i16, align 2
  %12 = alloca ptr, align 8
  %13 = alloca i64, align 8
  %14 = alloca ptr, align 8
  %15 = alloca i32, align 4
  %16 = alloca ptr, align 8
  %17 = alloca ptr, align 8
  %18 = alloca ptr, align 8
  store ptr %0, ptr %3, align 8
  call void @llvm.lifetime.start.p0(i64 8, ptr %4) #10
  %19 = load ptr, ptr %3, align 8
  %20 = getelementptr inbounds nuw %struct.FunctionCallInfoBaseData, ptr %19, i32 0, i32 6
  %21 = getelementptr inbounds [0 x %struct.NullableDatum], ptr %20, i64 0, i64 0
  %22 = getelementptr inbounds nuw %struct.NullableDatum, ptr %21, i32 0, i32 0
  %23 = load i64, ptr %22, align 8
  %24 = call ptr @DatumGetCString(i64 noundef %23)
  store ptr %24, ptr %4, align 8
  call void @llvm.lifetime.start.p0(i64 8, ptr %5) #10
  %25 = load ptr, ptr %3, align 8
  %26 = getelementptr inbounds nuw %struct.FunctionCallInfoBaseData, ptr %25, i32 0, i32 1
  %27 = load ptr, ptr %26, align 8
  store ptr %27, ptr %5, align 8
  call void @llvm.lifetime.start.p0(i64 8, ptr %6) #10
  call void @llvm.lifetime.start.p0(i64 16, ptr %7) #10
  call void @llvm.lifetime.start.p0(i64 4, ptr %8) #10
  call void @llvm.lifetime.start.p0(i64 8, ptr %9) #10
  call void @llvm.lifetime.start.p0(i64 4, ptr %10) #10
  call void @llvm.lifetime.start.p0(i64 2, ptr %11) #10
  call void @llvm.lifetime.start.p0(i64 8, ptr %12) #10
  call void @llvm.lifetime.start.p0(i64 8, ptr %13) #10
  store i32 0, ptr %8, align 4
  %28 = load ptr, ptr %4, align 8
  store ptr %28, ptr %6, align 8
  br label %29

29:                                               ; preds = %65, %1
  %30 = load ptr, ptr %6, align 8
  %31 = load i8, ptr %30, align 1
  %32 = sext i8 %31 to i32
  %33 = icmp ne i32 %32, 0
  br i1 %33, label %34, label %42

34:                                               ; preds = %29
  %35 = load i32, ptr %8, align 4
  %36 = icmp slt i32 %35, 2
  br i1 %36, label %37, label %42

37:                                               ; preds = %34
  %38 = load ptr, ptr %6, align 8
  %39 = load i8, ptr %38, align 1
  %40 = sext i8 %39 to i32
  %41 = icmp ne i32 %40, 41
  br label %42

42:                                               ; preds = %37, %34, %29
  %43 = phi i1 [ false, %34 ], [ false, %29 ], [ %41, %37 ]
  br i1 %43, label %44, label %68

44:                                               ; preds = %42
  %45 = load ptr, ptr %6, align 8
  %46 = load i8, ptr %45, align 1
  %47 = sext i8 %46 to i32
  %48 = icmp eq i32 %47, 44
  br i1 %48, label %57, label %49

49:                                               ; preds = %44
  %50 = load ptr, ptr %6, align 8
  %51 = load i8, ptr %50, align 1
  %52 = sext i8 %51 to i32
  %53 = icmp eq i32 %52, 40
  br i1 %53, label %54, label %64

54:                                               ; preds = %49
  %55 = load i32, ptr %8, align 4
  %56 = icmp eq i32 %55, 0
  br i1 %56, label %57, label %64

57:                                               ; preds = %54, %44
  %58 = load ptr, ptr %6, align 8
  %59 = getelementptr inbounds i8, ptr %58, i64 1
  %60 = load i32, ptr %8, align 4
  %61 = add i32 %60, 1
  store i32 %61, ptr %8, align 4
  %62 = sext i32 %60 to i64
  %63 = getelementptr inbounds [2 x ptr], ptr %7, i64 0, i64 %62
  store ptr %59, ptr %63, align 8
  br label %64

64:                                               ; preds = %57, %54, %49
  br label %65

65:                                               ; preds = %64
  %66 = load ptr, ptr %6, align 8
  %67 = getelementptr inbounds nuw i8, ptr %66, i32 1
  store ptr %67, ptr %6, align 8
  br label %29, !llvm.loop !4

68:                                               ; preds = %42
  %69 = load i32, ptr %8, align 4
  %70 = icmp slt i32 %69, 2
  br i1 %70, label %71, label %87

71:                                               ; preds = %68
  br label %72

72:                                               ; preds = %71
  br label %73

73:                                               ; preds = %72
  call void @llvm.lifetime.start.p0(i64 8, ptr %14) #10
  %74 = load ptr, ptr %5, align 8
  store ptr %74, ptr %14, align 8
  %75 = load ptr, ptr %14, align 8
  %76 = call zeroext i1 @errsave_start(ptr noundef %75, ptr noundef null)
  br i1 %76, label %77, label %82

77:                                               ; preds = %73
  %78 = call i32 @errcode(i32 noundef 33685634)
  %79 = load ptr, ptr %4, align 8
  %80 = call i32 (ptr, ...) @errmsg(ptr noundef @.str, ptr noundef @.str.1, ptr noundef %79)
  %81 = load ptr, ptr %14, align 8
  call void @errsave_finish(ptr noundef %81, ptr noundef @.str.2, i32 noundef 73, ptr noundef @__func__.tidin)
  br label %82

82:                                               ; preds = %77, %73
  call void @llvm.lifetime.end.p0(i64 8, ptr %14) #10
  br label %83

83:                                               ; preds = %82
  br label %84

84:                                               ; preds = %83
  store i64 0, ptr %2, align 8
  store i32 1, ptr %15, align 4
  br label %184

85:                                               ; No predecessors!
  br label %86

86:                                               ; preds = %85
  br label %87

87:                                               ; preds = %86, %68
  %88 = call ptr @__errno_location() #11
  store i32 0, ptr %88, align 4
  %89 = getelementptr inbounds [2 x ptr], ptr %7, i64 0, i64 0
  %90 = load ptr, ptr %89, align 16
  %91 = call i64 @strtoul(ptr noundef %90, ptr noundef %12, i32 noundef 10) #10
  store i64 %91, ptr %13, align 8
  %92 = call ptr @__errno_location() #11
  %93 = load i32, ptr %92, align 4
  %94 = icmp ne i32 %93, 0
  br i1 %94, label %100, label %95

95:                                               ; preds = %87
  %96 = load ptr, ptr %12, align 8
  %97 = load i8, ptr %96, align 1
  %98 = sext i8 %97 to i32
  %99 = icmp ne i32 %98, 44
  br i1 %99, label %100, label %116

100:                                              ; preds = %95, %87
  br label %101

101:                                              ; preds = %100
  br label %102

102:                                              ; preds = %101
  call void @llvm.lifetime.start.p0(i64 8, ptr %16) #10
  %103 = load ptr, ptr %5, align 8
  store ptr %103, ptr %16, align 8
  %104 = load ptr, ptr %16, align 8
  %105 = call zeroext i1 @errsave_start(ptr noundef %104, ptr noundef null)
  br i1 %105, label %106, label %111

106:                                              ; preds = %102
  %107 = call i32 @errcode(i32 noundef 33685634)
  %108 = load ptr, ptr %4, align 8
  %109 = call i32 (ptr, ...) @errmsg(ptr noundef @.str, ptr noundef @.str.1, ptr noundef %108)
  %110 = load ptr, ptr %16, align 8
  call void @errsave_finish(ptr noundef %110, ptr noundef @.str.2, i32 noundef 81, ptr noundef @__func__.tidin)
  br label %111

111:                                              ; preds = %106, %102
  call void @llvm.lifetime.end.p0(i64 8, ptr %16) #10
  br label %112

112:                                              ; preds = %111
  br label %113

113:                                              ; preds = %112
  store i64 0, ptr %2, align 8
  store i32 1, ptr %15, align 4
  br label %184

114:                                              ; No predecessors!
  br label %115

115:                                              ; preds = %114
  br label %116

116:                                              ; preds = %115, %95
  %117 = load i64, ptr %13, align 8
  %118 = trunc i64 %117 to i32
  store i32 %118, ptr %10, align 4
  %119 = load i64, ptr %13, align 8
  %120 = load i32, ptr %10, align 4
  %121 = zext i32 %120 to i64
  %122 = icmp ne i64 %119, %121
  br i1 %122, label %123, label %144

123:                                              ; preds = %116
  %124 = load i64, ptr %13, align 8
  %125 = load i32, ptr %10, align 4
  %126 = sext i32 %125 to i64
  %127 = icmp ne i64 %124, %126
  br i1 %127, label %128, label %144

128:                                              ; preds = %123
  br label %129

129:                                              ; preds = %128
  br label %130

130:                                              ; preds = %129
  call void @llvm.lifetime.start.p0(i64 8, ptr %17) #10
  %131 = load ptr, ptr %5, align 8
  store ptr %131, ptr %17, align 8
  %132 = load ptr, ptr %17, align 8
  %133 = call zeroext i1 @errsave_start(ptr noundef %132, ptr noundef null)
  br i1 %133, label %134, label %139

134:                                              ; preds = %130
  %135 = call i32 @errcode(i32 noundef 33685634)
  %136 = load ptr, ptr %4, align 8
  %137 = call i32 (ptr, ...) @errmsg(ptr noundef @.str, ptr noundef @.str.1, ptr noundef %136)
  %138 = load ptr, ptr %17, align 8
  call void @errsave_finish(ptr noundef %138, ptr noundef @.str.2, i32 noundef 95, ptr noundef @__func__.tidin)
  br label %139

139:                                              ; preds = %134, %130
  call void @llvm.lifetime.end.p0(i64 8, ptr %17) #10
  br label %140

140:                                              ; preds = %139
  br label %141

141:                                              ; preds = %140
  store i64 0, ptr %2, align 8
  store i32 1, ptr %15, align 4
  br label %184

142:                                              ; No predecessors!
  br label %143

143:                                              ; preds = %142
  br label %144

144:                                              ; preds = %143, %123, %116
  %145 = getelementptr inbounds [2 x ptr], ptr %7, i64 0, i64 1
  %146 = load ptr, ptr %145, align 8
  %147 = call i64 @strtoul(ptr noundef %146, ptr noundef %12, i32 noundef 10) #10
  store i64 %147, ptr %13, align 8
  %148 = call ptr @__errno_location() #11
  %149 = load i32, ptr %148, align 4
  %150 = icmp ne i32 %149, 0
  br i1 %150, label %159, label %151

151:                                              ; preds = %144
  %152 = load ptr, ptr %12, align 8
  %153 = load i8, ptr %152, align 1
  %154 = sext i8 %153 to i32
  %155 = icmp ne i32 %154, 41
  br i1 %155, label %159, label %156

156:                                              ; preds = %151
  %157 = load i64, ptr %13, align 8
  %158 = icmp ugt i64 %157, 65535
  br i1 %158, label %159, label %175

159:                                              ; preds = %156, %151, %144
  br label %160

160:                                              ; preds = %159
  br label %161

161:                                              ; preds = %160
  call void @llvm.lifetime.start.p0(i64 8, ptr %18) #10
  %162 = load ptr, ptr %5, align 8
  store ptr %162, ptr %18, align 8
  %163 = load ptr, ptr %18, align 8
  %164 = call zeroext i1 @errsave_start(ptr noundef %163, ptr noundef null)
  br i1 %164, label %165, label %170

165:                                              ; preds = %161
  %166 = call i32 @errcode(i32 noundef 33685634)
  %167 = load ptr, ptr %4, align 8
  %168 = call i32 (ptr, ...) @errmsg(ptr noundef @.str, ptr noundef @.str.1, ptr noundef %167)
  %169 = load ptr, ptr %18, align 8
  call void @errsave_finish(ptr noundef %169, ptr noundef @.str.2, i32 noundef 104, ptr noundef @__func__.tidin)
  br label %170

170:                                              ; preds = %165, %161
  call void @llvm.lifetime.end.p0(i64 8, ptr %18) #10
  br label %171

171:                                              ; preds = %170
  br label %172

172:                                              ; preds = %171
  store i64 0, ptr %2, align 8
  store i32 1, ptr %15, align 4
  br label %184

173:                                              ; No predecessors!
  br label %174

174:                                              ; preds = %173
  br label %175

175:                                              ; preds = %174, %156
  %176 = load i64, ptr %13, align 8
  %177 = trunc i64 %176 to i16
  store i16 %177, ptr %11, align 2
  %178 = call ptr @palloc(i64 noundef 6)
  store ptr %178, ptr %9, align 8
  %179 = load ptr, ptr %9, align 8
  %180 = load i32, ptr %10, align 4
  %181 = load i16, ptr %11, align 2
  call void @ItemPointerSet(ptr noundef %179, i32 noundef %180, i16 noundef zeroext %181)
  %182 = load ptr, ptr %9, align 8
  %183 = call i64 @ItemPointerGetDatum(ptr noundef %182)
  store i64 %183, ptr %2, align 8
  store i32 1, ptr %15, align 4
  br label %184

184:                                              ; preds = %175, %172, %141, %113, %84
  call void @llvm.lifetime.end.p0(i64 8, ptr %13) #10
  call void @llvm.lifetime.end.p0(i64 8, ptr %12) #10
  call void @llvm.lifetime.end.p0(i64 2, ptr %11) #10
  call void @llvm.lifetime.end.p0(i64 4, ptr %10) #10
  call void @llvm.lifetime.end.p0(i64 8, ptr %9) #10
  call void @llvm.lifetime.end.p0(i64 4, ptr %8) #10
  call void @llvm.lifetime.end.p0(i64 16, ptr %7) #10
  call void @llvm.lifetime.end.p0(i64 8, ptr %6) #10
  call void @llvm.lifetime.end.p0(i64 8, ptr %5) #10
  call void @llvm.lifetime.end.p0(i64 8, ptr %4) #10
  %185 = load i64, ptr %2, align 8
  ret i64 %185
}