; Function Attrs: nounwind uwtable
define dso_local noundef i64 @tidin(ptr noundef readonly captures(none) %0) local_unnamed_addr #0 {
  %2 = alloca [2 x ptr], align 16
  %3 = alloca ptr, align 8
  %4 = getelementptr inbounds nuw i8, ptr %0, i64 32
  %5 = load i64, ptr %4, align 8
  %6 = inttoptr i64 %5 to ptr
  %7 = getelementptr inbounds nuw i8, ptr %0, i64 8
  %8 = load ptr, ptr %7, align 8
  call void @llvm.lifetime.start.p0(i64 16, ptr nonnull %2) #11
  call void @llvm.lifetime.start.p0(i64 8, ptr nonnull %3) #11
  br label %switch.early.test

switch.early.test:                                ; preds = %1, %18
  %.04561 = phi ptr [ %6, %1 ], [ %19, %18 ]
  %.04660 = phi i32 [ 0, %1 ], [ %.1, %18 ]
  %9 = load i8, ptr %.04561, align 1
  switch i8 %9, label %10 [
    i8 41, label %.critedge
    i8 0, label %.critedge
    i8 44, label %13
  ]

10:                                               ; preds = %switch.early.test
  %11 = icmp eq i8 %9, 40
  %12 = icmp eq i32 %.04660, 0
  %or.cond3 = and i1 %11, %12
  br i1 %or.cond3, label %13, label %18

13:                                               ; preds = %switch.early.test, %10
  %14 = getelementptr inbounds nuw i8, ptr %.04561, i64 1
  %15 = add i32 %.04660, 1
  %16 = sext i32 %.04660 to i64
  %17 = getelementptr inbounds [2 x ptr], ptr %2, i64 0, i64 %16
  store ptr %14, ptr %17, align 8
  br label %18

18:                                               ; preds = %10, %13
  %.1 = phi i32 [ %15, %13 ], [ %.04660, %10 ]
  %19 = getelementptr inbounds nuw i8, ptr %.04561, i64 1
  %20 = icmp sgt i32 %.1, 1
  br i1 %20, label %25, label %switch.early.test, !llvm.loop !4

.critedge:                                        ; preds = %switch.early.test, %switch.early.test
  %21 = tail call zeroext i1 @errsave_start(ptr noundef %8, ptr noundef null) #11
  br i1 %21, label %22, label %69

22:                                               ; preds = %.critedge
  %23 = tail call i32 @errcode(i32 noundef 33685634) #11
  %24 = tail call i32 (ptr, ...) @errmsg(ptr noundef nonnull @.str, ptr noundef nonnull @.str.1, ptr noundef %6) #11
  tail call void @errsave_finish(ptr noundef %8, ptr noundef nonnull @.str.2, i32 noundef 73, ptr noundef nonnull @__func__.tidin) #11
  br label %69

25:                                               ; preds = %18
  %26 = tail call ptr @__errno_location() #12
  store i32 0, ptr %26, align 4
  %27 = load ptr, ptr %2, align 16
  %28 = call i64 @strtoul(ptr noundef %27, ptr noundef nonnull %3, i32 noundef 10) #11
  %29 = load i32, ptr %26, align 4
  %.not50 = icmp eq i32 %29, 0
  br i1 %.not50, label %30, label %33

30:                                               ; preds = %25
  %31 = load ptr, ptr %3, align 8
  %32 = load i8, ptr %31, align 1
  %.not51 = icmp eq i8 %32, 44
  br i1 %.not51, label %38, label %33

33:                                               ; preds = %30, %25
  %34 = tail call zeroext i1 @errsave_start(ptr noundef %8, ptr noundef null) #11
  br i1 %34, label %35, label %69

35:                                               ; preds = %33
  %36 = tail call i32 @errcode(i32 noundef 33685634) #11
  %37 = tail call i32 (ptr, ...) @errmsg(ptr noundef nonnull @.str, ptr noundef nonnull @.str.1, ptr noundef %6) #11
  tail call void @errsave_finish(ptr noundef %8, ptr noundef nonnull @.str.2, i32 noundef 81, ptr noundef nonnull @__func__.tidin) #11
  br label %69

38:                                               ; preds = %30
  %39 = add i64 %28, 2147483648
  %or.cond56 = icmp ult i64 %39, 6442450944
  br i1 %or.cond56, label %45, label %40

40:                                               ; preds = %38
  %41 = tail call zeroext i1 @errsave_start(ptr noundef %8, ptr noundef null) #11
  br i1 %41, label %42, label %69

42:                                               ; preds = %40
  %43 = tail call i32 @errcode(i32 noundef 33685634) #11
  %44 = tail call i32 (ptr, ...) @errmsg(ptr noundef nonnull @.str, ptr noundef nonnull @.str.1, ptr noundef %6) #11
  tail call void @errsave_finish(ptr noundef %8, ptr noundef nonnull @.str.2, i32 noundef 95, ptr noundef nonnull @__func__.tidin) #11
  br label %69

45:                                               ; preds = %38
  %46 = getelementptr inbounds nuw i8, ptr %2, i64 8
  %47 = load ptr, ptr %46, align 8
  %48 = call i64 @strtoul(ptr noundef %47, ptr noundef nonnull %3, i32 noundef 10) #11
  %49 = load i32, ptr %26, align 4
  %.not54 = icmp eq i32 %49, 0
  br i1 %.not54, label %50, label %55

50:                                               ; preds = %45
  %51 = load ptr, ptr %3, align 8
  %52 = load i8, ptr %51, align 1
  %53 = icmp ne i8 %52, 41
  %54 = icmp ugt i64 %48, 65535
  %or.cond5 = select i1 %53, i1 true, i1 %54
  br i1 %or.cond5, label %55, label %60

55:                                               ; preds = %50, %45
  %56 = tail call zeroext i1 @errsave_start(ptr noundef %8, ptr noundef null) #11
  br i1 %56, label %57, label %69

57:                                               ; preds = %55
  %58 = tail call i32 @errcode(i32 noundef 33685634) #11
  %59 = tail call i32 (ptr, ...) @errmsg(ptr noundef nonnull @.str, ptr noundef nonnull @.str.1, ptr noundef %6) #11
  tail call void @errsave_finish(ptr noundef %8, ptr noundef nonnull @.str.2, i32 noundef 104, ptr noundef nonnull @__func__.tidin) #11
  br label %69

60:                                               ; preds = %50
  %61 = trunc nuw i64 %48 to i16
  %62 = tail call ptr @palloc(i64 noundef 6) #11
  %63 = lshr i64 %28, 16
  %64 = trunc i64 %63 to i16
  store i16 %64, ptr %62, align 2
  %65 = trunc i64 %28 to i16
  %66 = getelementptr inbounds nuw i8, ptr %62, i64 2
  store i16 %65, ptr %66, align 2
  %67 = getelementptr inbounds nuw i8, ptr %62, i64 4
  store i16 %61, ptr %67, align 2
  %68 = ptrtoint ptr %62 to i64
  br label %69

69:                                               ; preds = %55, %57, %40, %42, %33, %35, %.critedge, %22, %60
  %.0 = phi i64 [ %68, %60 ], [ 0, %22 ], [ 0, %.critedge ], [ 0, %35 ], [ 0, %33 ], [ 0, %42 ], [ 0, %40 ], [ 0, %57 ], [ 0, %55 ]
  call void @llvm.lifetime.end.p0(i64 8, ptr nonnull %3) #11
  call void @llvm.lifetime.end.p0(i64 16, ptr nonnull %2) #11
  ret i64 %.0
}